; Function Attrs: mustprogress uwtable
define dso_local noundef zeroext i1 @_ZN2EA4StdC15CallbackManager6RemoveEPNS0_8CallbackE(ptr noundef nonnull align 8 dereferenceable(296) %this, ptr noundef %pCallback) unnamed_addr #1 align 2 personality ptr @__gxx_personality_v0 {
entry:
  %mMutex = getelementptr inbounds i8, ptr %this, i64 184
  %call = tail call noundef i32 @_ZN2EA6Thread5Mutex4LockERKNS0_10ThreadTimeE(ptr noundef nonnull align 8 dereferenceable(48) %mMutex, ptr noundef nonnull align 8 dereferenceable(16) @_ZN2EA6ThreadL12kTimeoutNoneE)
  %tobool.not = icmp eq ptr %pCallback, null
  br i1 %tobool.not, label %if.end12.thread, label %if.then

if.then:                                          ; preds = %entry
  %mbRunning = getelementptr inbounds i8, ptr %this, i64 137
  %0 = load volatile i8, ptr %mbRunning, align 1
  %1 = and i8 %0, 1
  %tobool2.not = icmp eq i8 %1, 0
  br i1 %tobool2.not, label %if.end12.thread, label %if.then3

if.then3:                                         ; preds = %if.then
  %mCallbackArray = getelementptr inbounds i8, ptr %this, i64 8
  %mpEnd.i = getelementptr inbounds i8, ptr %this, i64 16
  %2 = load ptr, ptr %mpEnd.i, align 8
  %3 = load ptr, ptr %mCallbackArray, align 8
  %cmp11.not = icmp eq ptr %2, %3
  br i1 %cmp11.not, label %if.end12.thread, label %for.body.preheader

for.body.preheader:                               ; preds = %if.then3
  %sub.ptr.lhs.cast.i = ptrtoint ptr %2 to i64
  %sub.ptr.rhs.cast.i = ptrtoint ptr %3 to i64
  %sub.ptr.sub.i = sub i64 %sub.ptr.lhs.cast.i, %sub.ptr.rhs.cast.i
  %sub.ptr.div.i = ashr exact i64 %sub.ptr.sub.i, 3
  %umax = tail call i64 @llvm.umax.i64(i64 %sub.ptr.div.i, i64 1)
  br label %for.body

for.body:                                         ; preds = %for.body.preheader, %for.inc
  %i.012 = phi i64 [ %inc, %for.inc ], [ 0, %for.body.preheader ]
  %arrayidx.i = getelementptr inbounds ptr, ptr %3, i64 %i.012
  %4 = load ptr, ptr %arrayidx.i, align 8
  %cmp7 = icmp eq ptr %4, %pCallback
  br i1 %cmp7, label %if.then16, label %for.inc

for.inc:                                          ; preds = %for.body
  %inc = add nuw i64 %i.012, 1
  %exitcond.not = icmp eq i64 %inc, %umax
  br i1 %exitcond.not, label %if.end12.thread, label %for.body, !llvm.loop !10

if.end12.thread:                                  ; preds = %for.inc, %if.then3, %if.then, %entry
  %call149 = tail call noundef i32 @_ZN2EA6Thread5Mutex6UnlockEv(ptr noundef nonnull align 8 dereferenceable(48) %mMutex)
  br label %if.end17

if.then16:                                        ; preds = %for.body
  %arrayidx.i.le = getelementptr inbounds ptr, ptr %3, i64 %i.012
  store ptr null, ptr %arrayidx.i.le, align 8
  %call14 = tail call noundef i32 @_ZN2EA6Thread5Mutex6UnlockEv(ptr noundef nonnull align 8 dereferenceable(48) %mMutex)
  %mbStarted.i = getelementptr inbounds i8, ptr %pCallback, i64 52
  %5 = load atomic i32, ptr %mbStarted.i seq_cst, align 4
  %tobool.not.i = icmp eq i32 %5, 0
  br i1 %tobool.not.i, label %if.end17, label %if.then.i

if.then.i:                                        ; preds = %if.then16
  %mpCallbackManager.i = getelementptr inbounds i8, ptr %pCallback, i64 24
  %6 = load ptr, ptr %mpCallbackManager.i, align 8
  %vtable.i = load ptr, ptr %6, align 8
  %vfn.i = getelementptr inbounds i8, ptr %vtable.i, i64 48
  %7 = load ptr, ptr %vfn.i, align 8
  %call2.i = tail call noundef zeroext i1 %7(ptr noundef nonnull align 8 dereferenceable(8) %6, ptr noundef nonnull %pCallback)
  store atomic i32 0, ptr %mbStarted.i seq_cst, align 4
  %mbEnableRefCount.i = getelementptr inbounds i8, ptr %pCallback, i64 57
  %8 = load i8, ptr %mbEnableRefCount.i, align 1
  %9 = and i8 %8, 1
  %tobool5.not.i = icmp eq i8 %9, 0
  br i1 %tobool5.not.i, label %if.end17, label %if.then6.i

if.then6.i:                                       ; preds = %if.then.i
  %mpFunction.i.i.i = getelementptr inbounds i8, ptr %pCallback, i64 32
  %10 = load ptr, ptr %mpFunction.i.i.i, align 8
  %tobool.not.i.i.i = icmp eq ptr %10, null
  br i1 %tobool.not.i.i.i, label %if.end17, label %if.then.i.i.i

if.then.i.i.i:                                    ; preds = %if.then6.i
  %mpFunctionArg.i.i.i = getelementptr inbounds i8, ptr %pCallback, i64 40
  %11 = load ptr, ptr %mpFunctionArg.i.i.i, align 8
  tail call void %10(ptr noundef nonnull %pCallback, ptr noundef %11, i64 noundef 1, i64 noundef 0)
  br label %if.end17

if.end17:                                         ; preds = %if.then.i.i.i, %if.then6.i, %if.then.i, %if.then16, %if.end12.thread
  %bRemoved.010 = phi i1 [ false, %if.end12.thread ], [ true, %if.then16 ], [ true, %if.then.i ], [ true, %if.then6.i ], [ true, %if.then.i.i.i ]
  ret i1 %bRemoved.010
}